target datalayout = "e-m:e-p270:32:32-p271:32:32-p272:64:64-i64:64-i128:128-f80:128-n8:16:32:64-S128"
target triple = "x86_64-pc-linux-gnu"

@hf_gryphon_ldf_schedule_name = internal global i32 0, align 4
@hf_gryphon_ldf_num_schedules = internal global i32 0, align 4

; Function Attrs: null_pointer_is_valid sspstrong uwtable
define internal i32 @resp_ldf_get_schedules(ptr noundef %0, i32 noundef %1, ptr noundef %2) #0 {
  %4 = alloca ptr, align 8
  %5 = alloca i32, align 4
  %6 = alloca ptr, align 8
  %7 = alloca i32, align 4
  %8 = alloca i16, align 2
  store ptr %0, ptr %4, align 8
  store i32 %1, ptr %5, align 4
  store ptr %2, ptr %6, align 8
  call void @llvm.lifetime.start.p0(i64 4, ptr %7) #7
  call void @llvm.lifetime.start.p0(i64 2, ptr %8) #7
  %9 = load ptr, ptr %4, align 8
  %10 = load i32, ptr %5, align 4
  %11 = call zeroext i16 @tvb_get_ntohs(ptr noundef %9, i32 noundef %10)
  store i16 %11, ptr %8, align 2
  %12 = load ptr, ptr %6, align 8
  %13 = load i32, ptr @hf_gryphon_ldf_num_schedules, align 4
  %14 = load ptr, ptr %4, align 8
  %15 = load i32, ptr %5, align 4
  %16 = call ptr @proto_tree_add_item(ptr noundef %12, i32 noundef %13, ptr noundef %14, i32 noundef %15, i32 noundef 2, i32 noundef 0)
  %17 = load i32, ptr %5, align 4
  %18 = add i32 %17, 2
  store i32 %18, ptr %5, align 4
  br label %19

19:                                               ; preds = %23, %3
  %20 = load i16, ptr %8, align 2
  %21 = zext i16 %20 to i32
  %22 = icmp sgt i32 %21, 0
  br i1 %22, label %23, label %36

23:                                               ; preds = %19
  %24 = load ptr, ptr %6, align 8
  %25 = load i32, ptr @hf_gryphon_ldf_schedule_name, align 4
  %26 = load ptr, ptr %4, align 8
  %27 = load i32, ptr %5, align 4
  %28 = call ptr @proto_tree_add_item_ret_length(ptr noundef %24, i32 noundef %25, ptr noundef %26, i32 noundef %27, i32 noundef -1, i32 noundef 0, ptr noundef %7)
  %29 = load i32, ptr %7, align 4
  %30 = load i32, ptr %5, align 4
  %31 = add i32 %30, %29
  store i32 %31, ptr %5, align 4
  %32 = load i16, ptr %8, align 2
  %33 = zext i16 %32 to i32
  %34 = sub i32 %33, 1
  %35 = trunc i32 %34 to i16
  store i16 %35, ptr %8, align 2
  br label %19, !llvm.loop !39

36:                                               ; preds = %19
  %37 = load i32, ptr %5, align 4
  call void @llvm.lifetime.end.p0(i64 2, ptr %8) #7
  call void @llvm.lifetime.end.p0(i64 4, ptr %7) #7
  ret i32 %37
}